; Function Attrs: mustprogress nounwind uwtable
define dso_local void @_ZN4llvm8codeview15TypeDumpVisitor14visitMemberEndERNS0_14CVMemberRecordE(ptr dead_on_unwind noalias writable writeonly sret(%"class.llvm::Error") align 8 captures(none) initializes((0, 8)) %0, ptr noundef nonnull readonly align 8 captures(none) dereferenceable(40) %1, ptr noundef nonnull readonly align 8 captures(none) dereferenceable(24) %2) unnamed_addr #0 align 2 {
  %4 = alloca %"class.llvm::ArrayRef", align 8
  %5 = getelementptr inbounds nuw i8, ptr %1, i64 16
  %6 = load i8, ptr %5, align 8
  %7 = trunc i8 %6 to i1
  br i1 %7, label %8, label %18

8:                                                ; preds = %3
  %9 = getelementptr inbounds nuw i8, ptr %1, i64 8
  %10 = load ptr, ptr %9, align 8
  %11 = getelementptr inbounds nuw i8, ptr %2, i64 8
  %.sroa.0.0.copyload = load ptr, ptr %11, align 8
  %.sroa.2.0..sroa_idx = getelementptr inbounds nuw i8, ptr %2, i64 16
  %.sroa.2.0.copyload = load i64, ptr %.sroa.2.0..sroa_idx, align 8
  %12 = tail call { ptr, i64 } @_ZN4llvm8codeview20getBytesAsCharactersENS_8ArrayRefIhEE(ptr %.sroa.0.0.copyload, i64 %.sroa.2.0.copyload) #14
  %13 = extractvalue { ptr, i64 } %12, 0
  %14 = extractvalue { ptr, i64 } %12, 1
  call void @llvm.lifetime.start.p0(i64 16, ptr nonnull %4)
  store ptr %13, ptr %4, align 8
  %.sroa.2.0..sroa_idx.i = getelementptr inbounds nuw i8, ptr %4, i64 8
  store i64 %14, ptr %.sroa.2.0..sroa_idx.i, align 8
  %15 = load ptr, ptr %10, align 8
  %16 = getelementptr inbounds nuw i8, ptr %15, i64 304
  %17 = load ptr, ptr %16, align 8
  tail call void %17(ptr noundef nonnull align 8 dereferenceable(44) %10, ptr nonnull @.str.4, i64 8, ptr null, i64 0, ptr noundef nonnull byval(%"class.llvm::ArrayRef") align 8 %4, i1 noundef zeroext true, i32 noundef 0) #14
  call void @llvm.lifetime.end.p0(i64 16, ptr nonnull %4)
  br label %18

18:                                               ; preds = %8, %3
  %19 = getelementptr inbounds nuw i8, ptr %1, i64 8
  %20 = load ptr, ptr %19, align 8
  %21 = getelementptr inbounds nuw i8, ptr %20, i64 16
  %22 = load i32, ptr %21, align 8
  %23 = tail call i32 @llvm.smax.i32(i32 %22, i32 1)
  %spec.select.i = add nsw i32 %23, -1
  store i32 %spec.select.i, ptr %21, align 8
  %24 = load ptr, ptr %19, align 8
  %25 = load ptr, ptr %24, align 8
  %26 = getelementptr inbounds nuw i8, ptr %25, i64 288
  %27 = load ptr, ptr %26, align 8
  %28 = tail call noundef nonnull align 8 dereferenceable(48) ptr %27(ptr noundef nonnull align 8 dereferenceable(44) %24) #14
  %29 = getelementptr inbounds nuw i8, ptr %28, i64 24
  %30 = load ptr, ptr %29, align 8
  %31 = getelementptr inbounds nuw i8, ptr %28, i64 32
  %32 = load ptr, ptr %31, align 8
  %33 = ptrtoint ptr %30 to i64
  %34 = ptrtoint ptr %32 to i64
  %35 = sub i64 %33, %34
  %36 = icmp ult i64 %35, 2
  br i1 %36, label %37, label %39

37:                                               ; preds = %18
  %38 = tail call noundef nonnull align 8 dereferenceable(48) ptr @_ZN4llvm11raw_ostream5writeEPKcm(ptr noundef nonnull align 8 dereferenceable(48) %28, ptr noundef nonnull @.str.5, i64 noundef 2) #14
  br label %_ZN4llvm12ErrorSuccessD2Ev.exit

39:                                               ; preds = %18
  store i16 2685, ptr %32, align 1
  %40 = load ptr, ptr %31, align 8
  %41 = getelementptr inbounds nuw i8, ptr %40, i64 2
  store ptr %41, ptr %31, align 8
  br label %_ZN4llvm12ErrorSuccessD2Ev.exit

_ZN4llvm12ErrorSuccessD2Ev.exit:                  ; preds = %39, %37
  store ptr null, ptr %0, align 8
  ret void
}